target datalayout = "e-m:e-p270:32:32-p271:32:32-p272:64:64-i64:64-i128:128-f80:128-n8:16:32:64-S128"
target triple = "x86_64-pc-linux-gnu"

; Function Attrs: mustprogress nounwind uwtable
define noundef i32 @_ZN19OpenColorIO_v2_5dev13BitDepthToIntENS_8BitDepthE(i32 noundef %0) #4 {
  %2 = alloca i32, align 4
  %3 = alloca i32, align 4
  store i32 %0, ptr %3, align 4, !tbaa !55
  %4 = load i32, ptr %3, align 4, !tbaa !55
  %5 = icmp eq i32 %4, 1
  br i1 %5, label %6, label %7

6:                                                ; preds = %1
  store i32 8, ptr %2, align 4
  br label %33

7:                                                ; preds = %1
  %8 = load i32, ptr %3, align 4, !tbaa !55
  %9 = icmp eq i32 %8, 2
  br i1 %9, label %10, label %11

10:                                               ; preds = %7
  store i32 10, ptr %2, align 4
  br label %33

11:                                               ; preds = %7
  %12 = load i32, ptr %3, align 4, !tbaa !55
  %13 = icmp eq i32 %12, 3
  br i1 %13, label %14, label %15

14:                                               ; preds = %11
  store i32 12, ptr %2, align 4
  br label %33

15:                                               ; preds = %11
  %16 = load i32, ptr %3, align 4, !tbaa !55
  %17 = icmp eq i32 %16, 4
  br i1 %17, label %18, label %19

18:                                               ; preds = %15
  store i32 14, ptr %2, align 4
  br label %33

19:                                               ; preds = %15
  %20 = load i32, ptr %3, align 4, !tbaa !55
  %21 = icmp eq i32 %20, 5
  br i1 %21, label %22, label %23

22:                                               ; preds = %19
  store i32 16, ptr %2, align 4
  br label %33

23:                                               ; preds = %19
  %24 = load i32, ptr %3, align 4, !tbaa !55
  %25 = icmp eq i32 %24, 6
  br i1 %25, label %26, label %27

26:                                               ; preds = %23
  store i32 32, ptr %2, align 4
  br label %33

27:                                               ; preds = %23
  br label %28

28:                                               ; preds = %27
  br label %29

29:                                               ; preds = %28
  br label %30

30:                                               ; preds = %29
  br label %31

31:                                               ; preds = %30
  br label %32

32:                                               ; preds = %31
  store i32 0, ptr %2, align 4
  br label %33

33:                                               ; preds = %32, %26, %22, %18, %14, %10, %6
  %34 = load i32, ptr %2, align 4
  ret i32 %34
}